; Function Attrs: nounwind uwtable
define internal ptr @interpreter_refcount_linked(ptr readnone captures(none) %0, ptr noundef %1) #0 {
  %3 = tail call ptr @_PyInterpreterState_LookUpIDObject(ptr noundef %1) #11
  %4 = icmp eq ptr %3, null
  br i1 %4, label %7, label %5

5:                                                ; preds = %2
  %6 = tail call i32 @_PyInterpreterState_RequiresIDRef(ptr noundef nonnull %3) #11
  %.not = icmp eq i32 %6, 0
  %_Py_FalseStruct._Py_TrueStruct = select i1 %.not, ptr @_Py_FalseStruct, ptr @_Py_TrueStruct
  br label %7

7:                                                ; preds = %5, %2
  %.0 = phi ptr [ null, %2 ], [ %_Py_FalseStruct._Py_TrueStruct, %5 ]
  ret ptr %.0
}